target datalayout = "e-m:e-p270:32:32-p271:32:32-p272:64:64-i64:64-i128:128-f80:128-n8:16:32:64-S128"
target triple = "x86_64-pc-linux-gnu"

%"struct.Luau::Position" = type { i32, i32 }
%"struct.std::pair.289" = type { i64, i64 }
%"class.std::basic_string_view" = type { i64, ptr }

; Function Attrs: mustprogress nounwind uwtable
define linkonce_odr dso_local void @_ZNSt4pairImmEC2IRmS2_TnNSt9enable_ifIXaaclsr5_PCCPE22_MoveConstructiblePairIT_T0_EEclsr5_PCCPE30_ImplicitlyMoveConvertiblePairIS4_S5_EEEbE4typeELb1EEEOS4_OS5_(ptr noundef nonnull align 8 dereferenceable(16) %0, ptr noundef nonnull align 8 dereferenceable(8) %1, ptr noundef nonnull align 8 dereferenceable(8) %2) unnamed_addr #2 comdat align 2 {
  %4 = alloca ptr, align 8
  %5 = alloca ptr, align 8
  %6 = alloca ptr, align 8
  store ptr %0, ptr %4, align 8, !tbaa !269
  store ptr %1, ptr %5, align 8, !tbaa !267
  store ptr %2, ptr %6, align 8, !tbaa !267
  %7 = load ptr, ptr %4, align 8
  %8 = getelementptr inbounds nuw %"struct.std::pair.289", ptr %7, i32 0, i32 0
  %9 = load ptr, ptr %5, align 8, !tbaa !267
  %10 = load i64, ptr %9, align 8, !tbaa !126
  store i64 %10, ptr %8, align 8, !tbaa !271
  %11 = getelementptr inbounds nuw %"struct.std::pair.289", ptr %7, i32 0, i32 1
  %12 = load ptr, ptr %6, align 8, !tbaa !267
  %13 = load i64, ptr %12, align 8, !tbaa !126
  store i64 %13, ptr %11, align 8, !tbaa !273
  ret void
}

; Function Attrs: inlinehint mustprogress nounwind uwtable
define linkonce_odr dso_local noundef nonnull align 8 dereferenceable(8) ptr @_ZSt3maxImERKT_S2_S2_(ptr noundef nonnull align 8 dereferenceable(8) %0, ptr noundef nonnull align 8 dereferenceable(8) %1) #6 comdat {
  %3 = alloca ptr, align 8
  %4 = alloca ptr, align 8
  %5 = alloca ptr, align 8
  store ptr %0, ptr %4, align 8, !tbaa !267
  store ptr %1, ptr %5, align 8, !tbaa !267
  %6 = load ptr, ptr %4, align 8, !tbaa !267
  %7 = load i64, ptr %6, align 8, !tbaa !126
  %8 = load ptr, ptr %5, align 8, !tbaa !267
  %9 = load i64, ptr %8, align 8, !tbaa !126
  %10 = icmp ult i64 %7, %9
  br i1 %10, label %11, label %13

11:                                               ; preds = %2
  %12 = load ptr, ptr %5, align 8, !tbaa !267
  store ptr %12, ptr %3, align 8
  br label %15

13:                                               ; preds = %2
  %14 = load ptr, ptr %4, align 8, !tbaa !267
  store ptr %14, ptr %3, align 8
  br label %15

15:                                               ; preds = %13, %11
  %16 = load ptr, ptr %3, align 8
  ret ptr %16
}

; Function Attrs: inlinehint mustprogress nounwind uwtable
define linkonce_odr dso_local noundef nonnull align 8 dereferenceable(8) ptr @_ZSt3minImERKT_S2_S2_(ptr noundef nonnull align 8 dereferenceable(8) %0, ptr noundef nonnull align 8 dereferenceable(8) %1) #6 comdat {
  %3 = alloca ptr, align 8
  %4 = alloca ptr, align 8
  %5 = alloca ptr, align 8
  store ptr %0, ptr %4, align 8, !tbaa !267
  store ptr %1, ptr %5, align 8, !tbaa !267
  %6 = load ptr, ptr %5, align 8, !tbaa !267
  %7 = load i64, ptr %6, align 8, !tbaa !126
  %8 = load ptr, ptr %4, align 8, !tbaa !267
  %9 = load i64, ptr %8, align 8, !tbaa !126
  %10 = icmp ult i64 %7, %9
  br i1 %10, label %11, label %13

11:                                               ; preds = %2
  %12 = load ptr, ptr %5, align 8, !tbaa !267
  store ptr %12, ptr %3, align 8
  br label %15

13:                                               ; preds = %2
  %14 = load ptr, ptr %4, align 8, !tbaa !267
  store ptr %14, ptr %3, align 8
  br label %15

15:                                               ; preds = %13, %11
  %16 = load ptr, ptr %3, align 8
  ret ptr %16
}

; Function Attrs: mustprogress nounwind uwtable
define linkonce_odr dso_local noundef i64 @_ZNKSt17basic_string_viewIcSt11char_traitsIcEE6lengthEv(ptr noundef nonnull align 8 dereferenceable(16) %0) #2 comdat align 2 {
  %2 = alloca ptr, align 8
  store ptr %0, ptr %2, align 8, !tbaa !260
  %3 = load ptr, ptr %2, align 8
  %4 = getelementptr inbounds nuw %"class.std::basic_string_view", ptr %3, i32 0, i32 0
  %5 = load i64, ptr %4, align 8, !tbaa !266
  ret i64 %5
}

; Function Attrs: mustprogress nounwind uwtable
define linkonce_odr dso_local noundef nonnull align 1 dereferenceable(1) ptr @_ZNKSt17basic_string_viewIcSt11char_traitsIcEEixEm(ptr noundef nonnull align 8 dereferenceable(16) %0, i64 noundef %1) #2 comdat align 2 {
  %3 = alloca ptr, align 8
  %4 = alloca i64, align 8
  store ptr %0, ptr %3, align 8, !tbaa !260
  store i64 %1, ptr %4, align 8, !tbaa !126
  %5 = load ptr, ptr %3, align 8
  br label %6

6:                                                ; preds = %2
  br label %7

7:                                                ; preds = %6
  br label %8

8:                                                ; preds = %7
  %9 = getelementptr inbounds nuw %"class.std::basic_string_view", ptr %5, i32 0, i32 1
  %10 = load ptr, ptr %9, align 8, !tbaa !264
  %11 = load i64, ptr %4, align 8, !tbaa !126
  %12 = getelementptr inbounds nuw i8, ptr %10, i64 %11
  ret ptr %12
}

; Function Attrs: mustprogress nounwind uwtable
define linkonce_odr dso_local noundef i64 @_ZNKSt17basic_string_viewIcSt11char_traitsIcEE4sizeEv(ptr noundef nonnull align 8 dereferenceable(16) %0) #2 comdat align 2 {
  %2 = alloca ptr, align 8
  store ptr %0, ptr %2, align 8, !tbaa !260
  %3 = load ptr, ptr %2, align 8
  %4 = getelementptr inbounds nuw %"class.std::basic_string_view", ptr %3, i32 0, i32 0
  %5 = load i64, ptr %4, align 8, !tbaa !266
  ret i64 %5
}

; Function Attrs: mustprogress nounwind uwtable
define linkonce_odr dso_local noundef ptr @_ZNKSt17basic_string_viewIcSt11char_traitsIcEE3endEv(ptr noundef nonnull align 8 dereferenceable(16) %0) #2 comdat align 2 {
  %2 = alloca ptr, align 8
  store ptr %0, ptr %2, align 8, !tbaa !260
  %3 = load ptr, ptr %2, align 8
  %4 = getelementptr inbounds nuw %"class.std::basic_string_view", ptr %3, i32 0, i32 1
  %5 = load ptr, ptr %4, align 8, !tbaa !264
  %6 = getelementptr inbounds nuw %"class.std::basic_string_view", ptr %3, i32 0, i32 0
  %7 = load i64, ptr %6, align 8, !tbaa !266
  %8 = getelementptr inbounds nuw i8, ptr %5, i64 %7
  ret ptr %8
}

; Function Attrs: mustprogress nounwind uwtable
define linkonce_odr dso_local noundef ptr @_ZNKSt17basic_string_viewIcSt11char_traitsIcEE5beginEv(ptr noundef nonnull align 8 dereferenceable(16) %0) #2 comdat align 2 {
  %2 = alloca ptr, align 8
  store ptr %0, ptr %2, align 8, !tbaa !260
  %3 = load ptr, ptr %2, align 8
  %4 = getelementptr inbounds nuw %"class.std::basic_string_view", ptr %3, i32 0, i32 1
  %5 = load ptr, ptr %4, align 8, !tbaa !264
  ret ptr %5
}

; Function Attrs: mustprogress uwtable
define dso_local { i64, i64 } @_ZN4Luau18getDocumentOffsetsERKSt17basic_string_viewIcSt11char_traitsIcEERKNS_8PositionES8_(ptr noundef nonnull align 8 dereferenceable(16) %0, ptr noundef nonnull align 4 dereferenceable(8) %1, ptr noundef nonnull align 4 dereferenceable(8) %2) #3 {
  %4 = alloca %"struct.std::pair.289", align 8
  %5 = alloca ptr, align 8
  %6 = alloca ptr, align 8
  %7 = alloca ptr, align 8
  %8 = alloca i64, align 8
  %9 = alloca i64, align 8
  %10 = alloca i64, align 8
  %11 = alloca i64, align 8
  %12 = alloca i64, align 8
  %13 = alloca i8, align 1
  %14 = alloca i8, align 1
  %15 = alloca ptr, align 8
  %16 = alloca ptr, align 8
  %17 = alloca ptr, align 8
  %18 = alloca i32, align 4
  %19 = alloca i8, align 1
  %20 = alloca i64, align 8
  %21 = alloca i64, align 8
  store ptr %0, ptr %5, align 8, !tbaa !260
  store ptr %1, ptr %6, align 8, !tbaa !188
  store ptr %2, ptr %7, align 8, !tbaa !188
  call void @llvm.lifetime.start.p0(i64 8, ptr %8) #21
  store i64 0, ptr %8, align 8, !tbaa !126
  call void @llvm.lifetime.start.p0(i64 8, ptr %9) #21
  store i64 0, ptr %9, align 8, !tbaa !126
  call void @llvm.lifetime.start.p0(i64 8, ptr %10) #21
  store i64 0, ptr %10, align 8, !tbaa !126
  call void @llvm.lifetime.start.p0(i64 8, ptr %11) #21
  store i64 0, ptr %11, align 8, !tbaa !126
  call void @llvm.lifetime.start.p0(i64 8, ptr %12) #21
  store i64 0, ptr %12, align 8, !tbaa !126
  call void @llvm.lifetime.start.p0(i64 1, ptr %13) #21
  store i8 0, ptr %13, align 1, !tbaa !13
  call void @llvm.lifetime.start.p0(i64 1, ptr %14) #21
  store i8 0, ptr %14, align 1, !tbaa !13
  call void @llvm.lifetime.start.p0(i64 8, ptr %15) #21
  %22 = load ptr, ptr %5, align 8, !tbaa !260
  store ptr %22, ptr %15, align 8, !tbaa !260
  call void @llvm.lifetime.start.p0(i64 8, ptr %16) #21
  %23 = load ptr, ptr %15, align 8, !tbaa !260
  %24 = call noundef ptr @_ZNKSt17basic_string_viewIcSt11char_traitsIcEE5beginEv(ptr noundef nonnull align 8 dereferenceable(16) %23) #21
  store ptr %24, ptr %16, align 8, !tbaa !11
  call void @llvm.lifetime.start.p0(i64 8, ptr %17) #21
  %25 = load ptr, ptr %15, align 8, !tbaa !260
  %26 = call noundef ptr @_ZNKSt17basic_string_viewIcSt11char_traitsIcEE3endEv(ptr noundef nonnull align 8 dereferenceable(16) %25) #21
  store ptr %26, ptr %17, align 8, !tbaa !11
  br label %27

27:                                               ; preds = %123, %3
  %28 = load ptr, ptr %16, align 8, !tbaa !11
  %29 = load ptr, ptr %17, align 8, !tbaa !11
  %30 = icmp ne ptr %28, %29
  br i1 %30, label %32, label %31

31:                                               ; preds = %27
  store i32 2, ptr %18, align 4
  br label %126

32:                                               ; preds = %27
  call void @llvm.lifetime.start.p0(i64 1, ptr %19) #21
  %33 = load ptr, ptr %16, align 8, !tbaa !11
  %34 = load i8, ptr %33, align 1, !tbaa !262
  store i8 %34, ptr %19, align 1, !tbaa !262
  %35 = load i8, ptr %13, align 1, !tbaa !13, !range !15, !noundef !16
  %36 = trunc i8 %35 to i1
  br i1 %36, label %37, label %41

37:                                               ; preds = %32
  %38 = load i8, ptr %14, align 1, !tbaa !13, !range !15, !noundef !16
  %39 = trunc i8 %38 to i1
  br i1 %39, label %40, label %41

40:                                               ; preds = %37
  store i32 2, ptr %18, align 4
  br label %120

41:                                               ; preds = %37, %32
  %42 = load ptr, ptr %6, align 8, !tbaa !188
  %43 = getelementptr inbounds nuw %"struct.Luau::Position", ptr %42, i32 0, i32 0
  %44 = load i32, ptr %43, align 4, !tbaa !203
  %45 = zext i32 %44 to i64
  %46 = load i64, ptr %8, align 8, !tbaa !126
  %47 = icmp eq i64 %45, %46
  br i1 %47, label %48, label %57

48:                                               ; preds = %41
  %49 = load ptr, ptr %6, align 8, !tbaa !188
  %50 = getelementptr inbounds nuw %"struct.Luau::Position", ptr %49, i32 0, i32 1
  %51 = load i32, ptr %50, align 4, !tbaa !251
  %52 = zext i32 %51 to i64
  %53 = load i64, ptr %9, align 8, !tbaa !126
  %54 = icmp eq i64 %52, %53
  br i1 %54, label %55, label %57

55:                                               ; preds = %48
  store i8 1, ptr %13, align 1, !tbaa !13
  %56 = load i64, ptr %10, align 8, !tbaa !126
  store i64 %56, ptr %11, align 8, !tbaa !126
  br label %57

57:                                               ; preds = %55, %48, %41
  %58 = load ptr, ptr %7, align 8, !tbaa !188
  %59 = getelementptr inbounds nuw %"struct.Luau::Position", ptr %58, i32 0, i32 0
  %60 = load i32, ptr %59, align 4, !tbaa !203
  %61 = zext i32 %60 to i64
  %62 = load i64, ptr %8, align 8, !tbaa !126
  %63 = icmp eq i64 %61, %62
  br i1 %63, label %64, label %91

64:                                               ; preds = %57
  %65 = load ptr, ptr %7, align 8, !tbaa !188
  %66 = getelementptr inbounds nuw %"struct.Luau::Position", ptr %65, i32 0, i32 1
  %67 = load i32, ptr %66, align 4, !tbaa !251
  %68 = zext i32 %67 to i64
  %69 = load i64, ptr %9, align 8, !tbaa !126
  %70 = icmp eq i64 %68, %69
  br i1 %70, label %71, label %91

71:                                               ; preds = %64
  %72 = load i64, ptr %10, align 8, !tbaa !126
  store i64 %72, ptr %12, align 8, !tbaa !126
  br label %73

73:                                               ; preds = %87, %71
  %74 = load i64, ptr %12, align 8, !tbaa !126
  %75 = load ptr, ptr %5, align 8, !tbaa !260
  %76 = call noundef i64 @_ZNKSt17basic_string_viewIcSt11char_traitsIcEE4sizeEv(ptr noundef nonnull align 8 dereferenceable(16) %75) #21
  %77 = icmp ult i64 %74, %76
  br i1 %77, label %78, label %85

78:                                               ; preds = %73
  %79 = load ptr, ptr %5, align 8, !tbaa !260
  %80 = load i64, ptr %12, align 8, !tbaa !126
  %81 = call noundef nonnull align 1 dereferenceable(1) ptr @_ZNKSt17basic_string_viewIcSt11char_traitsIcEEixEm(ptr noundef nonnull align 8 dereferenceable(16) %79, i64 noundef %80) #21
  %82 = load i8, ptr %81, align 1, !tbaa !262
  %83 = sext i8 %82 to i32
  %84 = icmp ne i32 %83, 10
  br label %85

85:                                               ; preds = %78, %73
  %86 = phi i1 [ false, %73 ], [ %84, %78 ]
  br i1 %86, label %87, label %90

87:                                               ; preds = %85
  %88 = load i64, ptr %12, align 8, !tbaa !126
  %89 = add i64 %88, 1
  store i64 %89, ptr %12, align 8, !tbaa !126
  br label %73, !llvm.loop !263

90:                                               ; preds = %85
  store i8 1, ptr %14, align 1, !tbaa !13
  br label %91

91:                                               ; preds = %90, %64, %57
  %92 = load i8, ptr %13, align 1, !tbaa !13, !range !15, !noundef !16
  %93 = trunc i8 %92 to i1
  br i1 %93, label %94, label %107

94:                                               ; preds = %91
  %95 = load i8, ptr %14, align 1, !tbaa !13, !range !15, !noundef !16
  %96 = trunc i8 %95 to i1
  br i1 %96, label %107, label %97

97:                                               ; preds = %94
  %98 = load i64, ptr %8, align 8, !tbaa !126
  %99 = load ptr, ptr %7, align 8, !tbaa !188
  %100 = getelementptr inbounds nuw %"struct.Luau::Position", ptr %99, i32 0, i32 0
  %101 = load i32, ptr %100, align 4, !tbaa !203
  %102 = zext i32 %101 to i64
  %103 = icmp ugt i64 %98, %102
  br i1 %103, label %104, label %107

104:                                              ; preds = %97
  store i8 1, ptr %14, align 1, !tbaa !13
  %105 = load i64, ptr %10, align 8, !tbaa !126
  %106 = sub i64 %105, 1
  store i64 %106, ptr %12, align 8, !tbaa !126
  br label %107

107:                                              ; preds = %104, %97, %94, %91
  %108 = load i8, ptr %19, align 1, !tbaa !262
  %109 = sext i8 %108 to i32
  %110 = icmp eq i32 %109, 10
  br i1 %110, label %111, label %114

111:                                              ; preds = %107
  %112 = load i64, ptr %8, align 8, !tbaa !126
  %113 = add i64 %112, 1
  store i64 %113, ptr %8, align 8, !tbaa !126
  store i64 0, ptr %9, align 8, !tbaa !126
  br label %117

114:                                              ; preds = %107
  %115 = load i64, ptr %9, align 8, !tbaa !126
  %116 = add i64 %115, 1
  store i64 %116, ptr %9, align 8, !tbaa !126
  br label %117

117:                                              ; preds = %114, %111
  %118 = load i64, ptr %10, align 8, !tbaa !126
  %119 = add i64 %118, 1
  store i64 %119, ptr %10, align 8, !tbaa !126
  store i32 0, ptr %18, align 4
  br label %120

120:                                              ; preds = %117, %40
  call void @llvm.lifetime.end.p0(i64 1, ptr %19) #21
  %121 = load i32, ptr %18, align 4
  switch i32 %121, label %126 [
    i32 0, label %122
  ]

122:                                              ; preds = %120
  br label %123

123:                                              ; preds = %122
  %124 = load ptr, ptr %16, align 8, !tbaa !11
  %125 = getelementptr inbounds nuw i8, ptr %124, i32 1
  store ptr %125, ptr %16, align 8, !tbaa !11
  br label %27

126:                                              ; preds = %120, %31
  call void @llvm.lifetime.end.p0(i64 8, ptr %17) #21
  call void @llvm.lifetime.end.p0(i64 8, ptr %16) #21
  call void @llvm.lifetime.end.p0(i64 8, ptr %15) #21
  br label %127

127:                                              ; preds = %126
  %128 = load i8, ptr %13, align 1, !tbaa !13, !range !15, !noundef !16
  %129 = trunc i8 %128 to i1
  br i1 %129, label %130, label %136

130:                                              ; preds = %127
  %131 = load i8, ptr %14, align 1, !tbaa !13, !range !15, !noundef !16
  %132 = trunc i8 %131 to i1
  br i1 %132, label %136, label %133

133:                                              ; preds = %130
  %134 = load ptr, ptr %5, align 8, !tbaa !260
  %135 = call noundef i64 @_ZNKSt17basic_string_viewIcSt11char_traitsIcEE6lengthEv(ptr noundef nonnull align 8 dereferenceable(16) %134) #21
  store i64 %135, ptr %12, align 8, !tbaa !126
  br label %136

136:                                              ; preds = %133, %130, %127
  call void @llvm.lifetime.start.p0(i64 8, ptr %20) #21
  %137 = call noundef nonnull align 8 dereferenceable(8) ptr @_ZSt3minImERKT_S2_S2_(ptr noundef nonnull align 8 dereferenceable(8) %11, ptr noundef nonnull align 8 dereferenceable(8) %12)
  %138 = load i64, ptr %137, align 8, !tbaa !126
  store i64 %138, ptr %20, align 8, !tbaa !126
  call void @llvm.lifetime.start.p0(i64 8, ptr %21) #21
  %139 = call noundef nonnull align 8 dereferenceable(8) ptr @_ZSt3maxImERKT_S2_S2_(ptr noundef nonnull align 8 dereferenceable(8) %11, ptr noundef nonnull align 8 dereferenceable(8) %12)
  %140 = load i64, ptr %139, align 8, !tbaa !126
  %141 = load i64, ptr %20, align 8, !tbaa !126
  %142 = sub i64 %140, %141
  store i64 %142, ptr %21, align 8, !tbaa !126
  call void @_ZNSt4pairImmEC2IRmS2_TnNSt9enable_ifIXaaclsr5_PCCPE22_MoveConstructiblePairIT_T0_EEclsr5_PCCPE30_ImplicitlyMoveConvertiblePairIS4_S5_EEEbE4typeELb1EEEOS4_OS5_(ptr noundef nonnull align 8 dereferenceable(16) %4, ptr noundef nonnull align 8 dereferenceable(8) %20, ptr noundef nonnull align 8 dereferenceable(8) %21)
  store i32 1, ptr %18, align 4
  call void @llvm.lifetime.end.p0(i64 8, ptr %21) #21
  call void @llvm.lifetime.end.p0(i64 8, ptr %20) #21
  call void @llvm.lifetime.end.p0(i64 1, ptr %14) #21
  call void @llvm.lifetime.end.p0(i64 1, ptr %13) #21
  call void @llvm.lifetime.end.p0(i64 8, ptr %12) #21
  call void @llvm.lifetime.end.p0(i64 8, ptr %11) #21
  call void @llvm.lifetime.end.p0(i64 8, ptr %10) #21
  call void @llvm.lifetime.end.p0(i64 8, ptr %9) #21
  call void @llvm.lifetime.end.p0(i64 8, ptr %8) #21
  %143 = load { i64, i64 }, ptr %4, align 8
  ret { i64, i64 } %143
}