; Function Attrs: mustprogress nofree norecurse nosync nounwind willreturn memory(read, inaccessiblemem: none) uwtable
define dso_local { i64, i64 } @_ZN4Luau18getDocumentOffsetsERKSt17basic_string_viewIcSt11char_traitsIcEERKNS_8PositionES8_(ptr noundef nonnull readonly align 8 captures(none) dereferenceable(16) %0, ptr noundef nonnull readonly align 4 captures(none) dereferenceable(8) %1, ptr noundef nonnull readonly align 4 captures(none) dereferenceable(8) %2) local_unnamed_addr #6 {
  %4 = getelementptr inbounds nuw i8, ptr %0, i64 8
  %5 = load ptr, ptr %4, align 8, !tbaa !177
  %6 = load i64, ptr %0, align 8, !tbaa !179
  %7 = getelementptr inbounds nuw i8, ptr %5, i64 %6
  %.not128 = icmp samesign eq i64 %6, 0
  br i1 %.not128, label %.thread111, label %.lr.ph138

.lr.ph138:                                        ; preds = %3
  %8 = load i32, ptr %1, align 4
  %9 = zext i32 %8 to i64
  %10 = getelementptr inbounds nuw i8, ptr %1, i64 4
  %11 = load i32, ptr %10, align 4
  %12 = zext i32 %11 to i64
  %13 = load i32, ptr %2, align 4
  %14 = zext i32 %13 to i64
  %15 = getelementptr inbounds nuw i8, ptr %2, i64 4
  %16 = load i32, ptr %15, align 4
  %17 = zext i32 %16 to i64
  br label %18

18:                                               ; preds = %.lr.ph138, %37
  %.0137 = phi i64 [ 0, %.lr.ph138 ], [ %.2, %37 ]
  %.034136 = phi i64 [ 0, %.lr.ph138 ], [ %.236, %37 ]
  %.037135 = phi ptr [ %5, %.lr.ph138 ], [ %42, %37 ]
  %.038133 = phi i64 [ 0, %.lr.ph138 ], [ %41, %37 ]
  %.040132 = phi i8 [ 0, %.lr.ph138 ], [ %.4, %37 ]
  %.043131 = phi i8 [ 0, %.lr.ph138 ], [ %spec.select115, %37 ]
  %.078130 = phi i64 [ 0, %.lr.ph138 ], [ %spec.select, %37 ]
  %.082129 = phi i64 [ 0, %.lr.ph138 ], [ %.486, %37 ]
  %19 = load i8, ptr %.037135, align 1, !tbaa !70
  %20 = trunc nuw i8 %.043131 to i1
  br i1 %20, label %21, label %23

21:                                               ; preds = %18
  %22 = trunc nuw i8 %.040132 to i1
  br i1 %22, label %.thread111, label %23

23:                                               ; preds = %21, %18
  %24 = icmp eq i64 %.0137, %9
  %25 = icmp eq i64 %.034136, %12
  %or.cond = select i1 %24, i1 %25, i1 false
  %spec.select = select i1 %or.cond, i64 %.038133, i64 %.078130
  %spec.select115 = select i1 %or.cond, i8 1, i8 %.043131
  %26 = icmp eq i64 %.0137, %14
  %27 = icmp eq i64 %.034136, %17
  %or.cond54 = select i1 %26, i1 %27, i1 false
  br i1 %or.cond54, label %.lr.ph, label %.critedge

.lr.ph:                                           ; preds = %23, %30
  %storemerge125 = phi i64 [ %31, %30 ], [ %.038133, %23 ]
  %28 = getelementptr inbounds nuw i8, ptr %5, i64 %storemerge125
  %29 = load i8, ptr %28, align 1, !tbaa !70
  %.not47 = icmp eq i8 %29, 10
  br i1 %.not47, label %.critedge, label %30

30:                                               ; preds = %.lr.ph
  %31 = add i64 %storemerge125, 1
  %exitcond.not = icmp eq i64 %31, %6
  br i1 %exitcond.not, label %.critedge, label %.lr.ph, !llvm.loop !180

.critedge:                                        ; preds = %30, %.lr.ph, %23
  %.385 = phi i64 [ %.082129, %23 ], [ %6, %30 ], [ %storemerge125, %.lr.ph ]
  %.3 = phi i8 [ %.040132, %23 ], [ 1, %.lr.ph ], [ 1, %30 ]
  %32 = trunc nuw i8 %spec.select115 to i1
  br i1 %32, label %33, label %37

33:                                               ; preds = %.critedge
  %34 = trunc nuw i8 %.3 to i1
  %35 = icmp ule i64 %.0137, %14
  %or.cond58.not = select i1 %34, i1 true, i1 %35
  %36 = add i64 %.038133, -1
  %spec.select116 = select i1 %or.cond58.not, i64 %.385, i64 %36
  %spec.select117 = select i1 %or.cond58.not, i8 %.3, i8 1
  br label %37

37:                                               ; preds = %33, %.critedge
  %.486 = phi i64 [ %.385, %.critedge ], [ %spec.select116, %33 ]
  %.4 = phi i8 [ %.3, %.critedge ], [ %spec.select117, %33 ]
  %38 = icmp eq i8 %19, 10
  %39 = add i64 %.034136, 1
  %.236 = select i1 %38, i64 0, i64 %39
  %40 = zext i1 %38 to i64
  %.2 = add i64 %.0137, %40
  %41 = add nuw i64 %.038133, 1
  %42 = getelementptr inbounds nuw i8, ptr %.037135, i64 1
  %.not = icmp eq ptr %42, %7
  br i1 %.not, label %._crit_edge, label %18

._crit_edge:                                      ; preds = %37
  %43 = trunc nuw i8 %spec.select115 to i1
  %44 = trunc nuw i8 %.4 to i1
  %45 = select i1 %44, i64 %.486, i64 %6
  %spec.select151 = select i1 %43, i64 %45, i64 %.486
  br label %.thread111

.thread111:                                       ; preds = %21, %._crit_edge, %3
  %.078123 = phi i64 [ 0, %3 ], [ %spec.select, %._crit_edge ], [ %.078130, %21 ]
  %.5 = phi i64 [ 0, %3 ], [ %spec.select151, %._crit_edge ], [ %.082129, %21 ]
  %.sroa.speculated67 = tail call i64 @llvm.umin.i64(i64 %.5, i64 %.078123)
  %.sroa.speculated = tail call i64 @llvm.umax.i64(i64 %.078123, i64 %.5)
  %46 = sub i64 %.sroa.speculated, %.sroa.speculated67
  %.fca.0.insert = insertvalue { i64, i64 } poison, i64 %.sroa.speculated67, 0
  %.fca.1.insert = insertvalue { i64, i64 } %.fca.0.insert, i64 %46, 1
  ret { i64, i64 } %.fca.1.insert
}